target datalayout = "e-m:e-p270:32:32-p271:32:32-p272:64:64-i64:64-i128:128-f80:128-n8:16:32:64-S128"
target triple = "x86_64-pc-linux-gnu"

%struct._e_guid_t = type { i32, i16, i16, [8 x i8] }
%struct._dcerpc_info = type { ptr, i32, i64, i8, i32, i32, i32, i32, i32, i32, i32, i32, i32, i32, ptr, ptr, ptr }
%struct._dcerpc_call_value = type { %struct._e_guid_t, i16, %struct._e_guid_t, i16, i32, %struct.nstime_t, i32, i32, ptr, ptr, ptr, i32 }
%struct.nstime_t = type { i64, i32 }

@ett_drsuapi_drsuapi_DsReplicaCursor3 = internal global i32 -1, align 4
@hf_drsuapi_drsuapi_DsReplicaCursor3_highest_usn = internal global i32 -1, align 4
@hf_drsuapi_drsuapi_DsReplicaCursor3_last_sync_success = internal global i32 -1, align 4
@hf_drsuapi_drsuapi_DsReplicaCursor3_source_dsa_invocation_id = internal global i32 -1, align 4
@hf_drsuapi_drsuapi_DsReplicaCursor3_source_dsa_obj_dn = internal global i32 -1, align 4
@.str.1505 = private unnamed_addr constant [38 x i8] c"Pointer to Source Dsa Obj Dn (uint16)\00", align 1

; Function Attrs: nounwind uwtable
define internal i32 @drsuapi_dissect_element_DsReplicaCursor3_source_dsa_obj_dn(ptr noundef %0, i32 noundef %1, ptr noundef %2, ptr noundef %3, ptr noundef %4, ptr noundef %5) #0 {
  %7 = alloca ptr, align 8
  %8 = alloca i32, align 4
  %9 = alloca ptr, align 8
  %10 = alloca ptr, align 8
  %11 = alloca ptr, align 8
  %12 = alloca ptr, align 8
  store ptr %0, ptr %7, align 8
  store i32 %1, ptr %8, align 4
  store ptr %2, ptr %9, align 8
  store ptr %3, ptr %10, align 8
  store ptr %4, ptr %11, align 8
  store ptr %5, ptr %12, align 8
  %13 = load ptr, ptr %7, align 8
  %14 = load i32, ptr %8, align 4
  %15 = load ptr, ptr %9, align 8
  %16 = load ptr, ptr %10, align 8
  %17 = load ptr, ptr %11, align 8
  %18 = load ptr, ptr %12, align 8
  %19 = load i32, ptr @hf_drsuapi_drsuapi_DsReplicaCursor3_source_dsa_obj_dn, align 4
  %20 = call i32 @dissect_ndr_embedded_pointer(ptr noundef %13, i32 noundef %14, ptr noundef %15, ptr noundef %16, ptr noundef %17, ptr noundef %18, ptr noundef @drsuapi_dissect_element_DsReplicaCursor3_source_dsa_obj_dn_, i32 noundef 2, ptr noundef @.str.1505, i32 noundef %19)
  store i32 %20, ptr %8, align 4
  %21 = load i32, ptr %8, align 4
  ret i32 %21
}

; Function Attrs: nounwind uwtable
define internal i32 @drsuapi_dissect_element_DsReplicaCursor3_last_sync_success(ptr noundef %0, i32 noundef %1, ptr noundef %2, ptr noundef %3, ptr noundef %4, ptr noundef %5) #0 {
  %7 = alloca ptr, align 8
  %8 = alloca i32, align 4
  %9 = alloca ptr, align 8
  %10 = alloca ptr, align 8
  %11 = alloca ptr, align 8
  %12 = alloca ptr, align 8
  store ptr %0, ptr %7, align 8
  store i32 %1, ptr %8, align 4
  store ptr %2, ptr %9, align 8
  store ptr %3, ptr %10, align 8
  store ptr %4, ptr %11, align 8
  store ptr %5, ptr %12, align 8
  %13 = load ptr, ptr %7, align 8
  %14 = load i32, ptr %8, align 4
  %15 = load ptr, ptr %9, align 8
  %16 = load ptr, ptr %10, align 8
  %17 = load ptr, ptr %11, align 8
  %18 = load ptr, ptr %12, align 8
  %19 = load i32, ptr @hf_drsuapi_drsuapi_DsReplicaCursor3_last_sync_success, align 4
  %20 = call i32 @dissect_ndr_nt_NTTIME(ptr noundef %13, i32 noundef %14, ptr noundef %15, ptr noundef %16, ptr noundef %17, ptr noundef %18, i32 noundef %19)
  store i32 %20, ptr %8, align 4
  %21 = load i32, ptr %8, align 4
  ret i32 %21
}

; Function Attrs: nounwind uwtable
define internal i32 @drsuapi_dissect_element_DsReplicaCursor3_highest_usn(ptr noundef %0, i32 noundef %1, ptr noundef %2, ptr noundef %3, ptr noundef %4, ptr noundef %5) #0 {
  %7 = alloca ptr, align 8
  %8 = alloca i32, align 4
  %9 = alloca ptr, align 8
  %10 = alloca ptr, align 8
  %11 = alloca ptr, align 8
  %12 = alloca ptr, align 8
  store ptr %0, ptr %7, align 8
  store i32 %1, ptr %8, align 4
  store ptr %2, ptr %9, align 8
  store ptr %3, ptr %10, align 8
  store ptr %4, ptr %11, align 8
  store ptr %5, ptr %12, align 8
  %13 = load ptr, ptr %7, align 8
  %14 = load i32, ptr %8, align 4
  %15 = load ptr, ptr %9, align 8
  %16 = load ptr, ptr %10, align 8
  %17 = load ptr, ptr %11, align 8
  %18 = load ptr, ptr %12, align 8
  %19 = load i32, ptr @hf_drsuapi_drsuapi_DsReplicaCursor3_highest_usn, align 4
  %20 = call i32 @dissect_ndr_uint64(ptr noundef %13, i32 noundef %14, ptr noundef %15, ptr noundef %16, ptr noundef %17, ptr noundef %18, i32 noundef %19, ptr noundef null)
  store i32 %20, ptr %8, align 4
  %21 = load i32, ptr %8, align 4
  ret i32 %21
}

; Function Attrs: nounwind uwtable
define internal i32 @drsuapi_dissect_element_DsReplicaCursor3_source_dsa_invocation_id(ptr noundef %0, i32 noundef %1, ptr noundef %2, ptr noundef %3, ptr noundef %4, ptr noundef %5) #0 {
  %7 = alloca ptr, align 8
  %8 = alloca i32, align 4
  %9 = alloca ptr, align 8
  %10 = alloca ptr, align 8
  %11 = alloca ptr, align 8
  %12 = alloca ptr, align 8
  store ptr %0, ptr %7, align 8
  store i32 %1, ptr %8, align 4
  store ptr %2, ptr %9, align 8
  store ptr %3, ptr %10, align 8
  store ptr %4, ptr %11, align 8
  store ptr %5, ptr %12, align 8
  %13 = load ptr, ptr %7, align 8
  %14 = load i32, ptr %8, align 4
  %15 = load ptr, ptr %9, align 8
  %16 = load ptr, ptr %10, align 8
  %17 = load ptr, ptr %11, align 8
  %18 = load ptr, ptr %12, align 8
  %19 = load i32, ptr @hf_drsuapi_drsuapi_DsReplicaCursor3_source_dsa_invocation_id, align 4
  %20 = call i32 @dissect_ndr_uuid_t(ptr noundef %13, i32 noundef %14, ptr noundef %15, ptr noundef %16, ptr noundef %17, ptr noundef %18, i32 noundef %19, ptr noundef null)
  store i32 %20, ptr %8, align 4
  %21 = load i32, ptr %8, align 4
  ret i32 %21
}

; Function Attrs: nounwind uwtable
define hidden i32 @drsuapi_dissect_struct_DsReplicaCursor3(ptr noundef %0, i32 noundef %1, ptr noundef %2, ptr noundef %3, ptr noundef %4, ptr noundef %5, i32 noundef %6, i32 noundef %7) #0 {
  %9 = alloca ptr, align 8
  %10 = alloca i32, align 4
  %11 = alloca ptr, align 8
  %12 = alloca ptr, align 8
  %13 = alloca ptr, align 8
  %14 = alloca ptr, align 8
  %15 = alloca i32, align 4
  %16 = alloca i32, align 4
  %17 = alloca ptr, align 8
  %18 = alloca ptr, align 8
  %19 = alloca i32, align 4
  store ptr %0, ptr %9, align 8
  store i32 %1, ptr %10, align 4
  store ptr %2, ptr %11, align 8
  store ptr %3, ptr %12, align 8
  store ptr %4, ptr %13, align 8
  store ptr %5, ptr %14, align 8
  store i32 %6, ptr %15, align 4
  store i32 %7, ptr %16, align 4
  store ptr null, ptr %17, align 8
  store ptr null, ptr %18, align 8
  %20 = load ptr, ptr %13, align 8
  %21 = getelementptr inbounds %struct._dcerpc_info, ptr %20, i32 0, i32 4
  %22 = load i32, ptr %21, align 4
  %23 = icmp ne i32 %22, 0
  br i1 %23, label %33, label %24

24:                                               ; preds = %8
  %25 = load i32, ptr %10, align 4
  %26 = and i32 %25, 7
  %27 = icmp ne i32 %26, 0
  br i1 %27, label %28, label %32

28:                                               ; preds = %24
  %29 = load i32, ptr %10, align 4
  %30 = and i32 %29, -8
  %31 = add i32 %30, 8
  store i32 %31, ptr %10, align 4
  br label %32

32:                                               ; preds = %28, %24
  br label %33

33:                                               ; preds = %32, %8
  %34 = load i32, ptr %10, align 4
  store i32 %34, ptr %19, align 4
  %35 = load ptr, ptr %12, align 8
  %36 = icmp ne ptr %35, null
  br i1 %36, label %37, label %46

37:                                               ; preds = %33
  %38 = load ptr, ptr %12, align 8
  %39 = load i32, ptr %15, align 4
  %40 = load ptr, ptr %9, align 8
  %41 = load i32, ptr %10, align 4
  %42 = call ptr @proto_tree_add_item(ptr noundef %38, i32 noundef %39, ptr noundef %40, i32 noundef %41, i32 noundef -1, i32 noundef 0)
  store ptr %42, ptr %17, align 8
  %43 = load ptr, ptr %17, align 8
  %44 = load i32, ptr @ett_drsuapi_drsuapi_DsReplicaCursor3, align 4
  %45 = call ptr @proto_item_add_subtree(ptr noundef %43, i32 noundef %44)
  store ptr %45, ptr %18, align 8
  br label %46

46:                                               ; preds = %37, %33
  %47 = load ptr, ptr %9, align 8
  %48 = load i32, ptr %10, align 4
  %49 = load ptr, ptr %11, align 8
  %50 = load ptr, ptr %18, align 8
  %51 = load ptr, ptr %13, align 8
  %52 = load ptr, ptr %14, align 8
  %53 = call i32 @drsuapi_dissect_element_DsReplicaCursor3_source_dsa_invocation_id(ptr noundef %47, i32 noundef %48, ptr noundef %49, ptr noundef %50, ptr noundef %51, ptr noundef %52)
  store i32 %53, ptr %10, align 4
  %54 = load ptr, ptr %9, align 8
  %55 = load i32, ptr %10, align 4
  %56 = load ptr, ptr %11, align 8
  %57 = load ptr, ptr %18, align 8
  %58 = load ptr, ptr %13, align 8
  %59 = load ptr, ptr %14, align 8
  %60 = call i32 @drsuapi_dissect_element_DsReplicaCursor3_highest_usn(ptr noundef %54, i32 noundef %55, ptr noundef %56, ptr noundef %57, ptr noundef %58, ptr noundef %59)
  store i32 %60, ptr %10, align 4
  %61 = load ptr, ptr %9, align 8
  %62 = load i32, ptr %10, align 4
  %63 = load ptr, ptr %11, align 8
  %64 = load ptr, ptr %18, align 8
  %65 = load ptr, ptr %13, align 8
  %66 = load ptr, ptr %14, align 8
  %67 = call i32 @drsuapi_dissect_element_DsReplicaCursor3_last_sync_success(ptr noundef %61, i32 noundef %62, ptr noundef %63, ptr noundef %64, ptr noundef %65, ptr noundef %66)
  store i32 %67, ptr %10, align 4
  %68 = load ptr, ptr %9, align 8
  %69 = load i32, ptr %10, align 4
  %70 = load ptr, ptr %11, align 8
  %71 = load ptr, ptr %18, align 8
  %72 = load ptr, ptr %13, align 8
  %73 = load ptr, ptr %14, align 8
  %74 = call i32 @drsuapi_dissect_element_DsReplicaCursor3_source_dsa_obj_dn(ptr noundef %68, i32 noundef %69, ptr noundef %70, ptr noundef %71, ptr noundef %72, ptr noundef %73)
  store i32 %74, ptr %10, align 4
  %75 = load ptr, ptr %17, align 8
  %76 = load i32, ptr %10, align 4
  %77 = load i32, ptr %19, align 4
  %78 = sub i32 %76, %77
  call void @proto_item_set_len(ptr noundef %75, i32 noundef %78)
  %79 = load ptr, ptr %13, align 8
  %80 = getelementptr inbounds %struct._dcerpc_info, ptr %79, i32 0, i32 14
  %81 = load ptr, ptr %80, align 8
  %82 = getelementptr inbounds %struct._dcerpc_call_value, ptr %81, i32 0, i32 11
  %83 = load i32, ptr %82, align 8
  %84 = and i32 %83, 1
  %85 = icmp ne i32 %84, 0
  br i1 %85, label %86, label %101

86:                                               ; preds = %46
  %87 = load ptr, ptr %13, align 8
  %88 = getelementptr inbounds %struct._dcerpc_info, ptr %87, i32 0, i32 4
  %89 = load i32, ptr %88, align 4
  %90 = icmp ne i32 %89, 0
  br i1 %90, label %100, label %91

91:                                               ; preds = %86
  %92 = load i32, ptr %10, align 4
  %93 = and i32 %92, 7
  %94 = icmp ne i32 %93, 0
  br i1 %94, label %95, label %99

95:                                               ; preds = %91
  %96 = load i32, ptr %10, align 4
  %97 = and i32 %96, -8
  %98 = add i32 %97, 8
  store i32 %98, ptr %10, align 4
  br label %99

99:                                               ; preds = %95, %91
  br label %100

100:                                              ; preds = %99, %86
  br label %101

101:                                              ; preds = %100, %46
  %102 = load i32, ptr %10, align 4
  ret i32 %102
}