; Function Attrs: nounwind uwtable
define hidden i32 @drsuapi_dissect_struct_DsReplicaCursor3(ptr noundef %0, i32 noundef %1, ptr noundef %2, ptr noundef %3, ptr noundef %4, ptr noundef %5, i32 noundef %6, i32 %7) local_unnamed_addr #0 {
  %9 = getelementptr inbounds nuw i8, ptr %4, i64 28
  %10 = load i32, ptr %9, align 4
  %.not = icmp ne i32 %10, 0
  %11 = and i32 %1, 7
  %.not44 = icmp eq i32 %11, 0
  %or.cond = or i1 %.not44, %.not
  %12 = and i32 %1, -8
  %13 = add i32 %12, 8
  %.0 = select i1 %or.cond, i32 %1, i32 %13
  %.not45 = icmp eq ptr %3, null
  br i1 %.not45, label %18, label %14

14:                                               ; preds = %8
  %15 = tail call ptr @proto_tree_add_item(ptr noundef nonnull %3, i32 noundef %6, ptr noundef %0, i32 noundef %.0, i32 noundef -1, i32 noundef 0) #5
  %16 = load i32, ptr @ett_drsuapi_drsuapi_DsReplicaCursor3, align 4
  %17 = tail call ptr @proto_item_add_subtree(ptr noundef %15, i32 noundef %16) #5
  br label %18

18:                                               ; preds = %14, %8
  %.042 = phi ptr [ %15, %14 ], [ null, %8 ]
  %.041 = phi ptr [ %17, %14 ], [ null, %8 ]
  %19 = load i32, ptr @hf_drsuapi_drsuapi_DsReplicaCursor3_source_dsa_invocation_id, align 4
  %20 = tail call i32 @dissect_ndr_uuid_t(ptr noundef %0, i32 noundef %.0, ptr noundef %2, ptr noundef %.041, ptr noundef nonnull %4, ptr noundef %5, i32 noundef %19, ptr noundef null) #5
  %21 = load i32, ptr @hf_drsuapi_drsuapi_DsReplicaCursor3_highest_usn, align 4
  %22 = tail call i32 @dissect_ndr_uint64(ptr noundef %0, i32 noundef %20, ptr noundef %2, ptr noundef %.041, ptr noundef nonnull %4, ptr noundef %5, i32 noundef %21, ptr noundef null) #5
  %23 = load i32, ptr @hf_drsuapi_drsuapi_DsReplicaCursor3_last_sync_success, align 4
  %24 = tail call i32 @dissect_ndr_nt_NTTIME(ptr noundef %0, i32 noundef %22, ptr noundef %2, ptr noundef %.041, ptr noundef nonnull %4, ptr noundef %5, i32 noundef %23) #5
  %25 = load i32, ptr @hf_drsuapi_drsuapi_DsReplicaCursor3_source_dsa_obj_dn, align 4
  %26 = tail call i32 @dissect_ndr_embedded_pointer(ptr noundef %0, i32 noundef %24, ptr noundef %2, ptr noundef %.041, ptr noundef nonnull %4, ptr noundef %5, ptr noundef nonnull @drsuapi_dissect_element_DsReplicaCursor3_source_dsa_obj_dn_, i32 noundef 2, ptr noundef nonnull @.str.1505, i32 noundef %25) #5
  %27 = sub i32 %26, %.0
  tail call void @proto_item_set_len(ptr noundef %.042, i32 noundef %27) #5
  %28 = getelementptr inbounds nuw i8, ptr %4, i64 72
  %29 = load ptr, ptr %28, align 8
  %30 = getelementptr inbounds nuw i8, ptr %29, i64 96
  %31 = load i32, ptr %30, align 8
  %32 = and i32 %31, 1
  %.not46 = icmp eq i32 %32, 0
  br i1 %.not46, label %39, label %33

33:                                               ; preds = %18
  %34 = load i32, ptr %9, align 4
  %.not47 = icmp ne i32 %34, 0
  %35 = and i32 %26, 7
  %.not48 = icmp eq i32 %35, 0
  %or.cond49 = or i1 %.not48, %.not47
  br i1 %or.cond49, label %39, label %36

36:                                               ; preds = %33
  %37 = and i32 %26, -8
  %38 = add i32 %37, 8
  br label %39

39:                                               ; preds = %33, %36, %18
  %.1 = phi i32 [ %26, %33 ], [ %38, %36 ], [ %26, %18 ]
  ret i32 %.1
}